; Function Attrs: mustprogress uwtable
define void @_ZN6icu_7718TimeZoneTransition5setToERKNS_12TimeZoneRuleE(ptr noundef nonnull align 8 captures(none) dereferenceable(32) %0, ptr noundef nonnull align 8 dereferenceable(80) %1) local_unnamed_addr #1 align 2 {
  %3 = getelementptr inbounds nuw i8, ptr %0, i64 24
  %4 = load ptr, ptr %3, align 8, !tbaa !14
  %5 = icmp eq ptr %4, null
  br i1 %5, label %10, label %6

6:                                                ; preds = %2
  %7 = load ptr, ptr %4, align 8, !tbaa !3
  %8 = getelementptr inbounds nuw i8, ptr %7, i64 8
  %9 = load ptr, ptr %8, align 8
  tail call void %9(ptr noundef nonnull align 8 dereferenceable(80) %4) #8
  br label %10

10:                                               ; preds = %6, %2
  %11 = load ptr, ptr %1, align 8, !tbaa !3
  %12 = getelementptr inbounds nuw i8, ptr %11, i64 24
  %13 = load ptr, ptr %12, align 8
  %14 = tail call noundef ptr %13(ptr noundef nonnull align 8 dereferenceable(80) %1)
  store ptr %14, ptr %3, align 8, !tbaa !14
  ret void
}